(dp1
S'old man gift'
p2
S''
sS'gold'
p3
I310
sS'brother item'
p4
S'ELIXIR'
p5
sS'old man item'
p6
(dp7
g5
(dp8
S'value'
p9
I1000
sS'quantity'
p10
I1
sssS'battle type'
p11
S''
sS'treasure2'
p12
I01
sS'treasure3'
p13
I01
sS'treasure4'
p14
I01
sS'treasure5'
p15
I01
sS'start of game'
p16
I01
sS'delivered crown'
p17
I00
sS'crown quest'
p18
I00
sS'has brother elixir'
p19
I00
sS'last location'
p20
(lp21
F14
aF46
asS'last state'
p22
S'FaesLanding'
p23
sS'king item'
p24
S'GOLD'
p25
sS'last direction'
p26
S'down'
p27
sS'conductors'
p28
(lp29
(idata.entityclasses
Conductor
p30
(dp31
S'conductorskill'
p32
NsS'name'
p33
S'Hanami Otozono'
p34
sS'monsterLimit'
p35
I3
sS'inventory'
p36
ccopy_reg
_reconstructor
p37
(cdata.compositeclasses
Inventory
p38
c__builtin__
object
p39
NtRp40
(dp41
S'items'
p42
(lp43
g37
(cdata.compositeclasses
Consumable
p44
g39
NtRp45
(dp46
S'index'
p47
I1
sS'itemType'
p48
S'Consumable'
p49
sS'target'
p50
S'one'
p51
sS'prices'
p52
(dp53
S'sell'
p54
I25
sS'buy'
p55
I50
ssS'effectsList'
p56
(lp57
(lp58
S'rec_HP'
p59
a(lp60
I100
aaasg33
S'Potion'
p61
sbag37
(cdata.compositeclasses
Instrument
p62
g39
NtRp63
(dp64
g52
(dp65
g54
I300
sg55
I600
ssg47
I1
sS'stats'
p66
(dp67
S'bonus'
p68
(dp69
S'bonuscla'
p70
I0
sS'bonusdef'
p71
I0
sS'bonusnotegain'
p72
I0
sS'bonusfoc'
p73
I0
sS'bonusatk'
p74
I60
sS'bonusrhy'
p75
I0
sS'bonusHP'
p76
I0
sS'bonusmus'
p77
I30
ssS'penalty'
p78
(dp79
S'penaltyatk'
p80
I0
sS'penaltynotegain'
p81
I0
sS'penaltycla'
p82
I0
sS'penaltyrhy'
p83
I0
sS'penaltymus'
p84
I0
sS'penaltyHP'
p85
I0
sS'penaltyfoc'
p86
I0
sS'penaltydef'
p87
I0
ssS'base'
p88
(dp89
S'hits'
p90
I8
sS'proration'
p91
F0.90000000000000002
sS'critchance'
p92
I2
sS'effects'
p93
NsS'atkmult'
p94
F0.20000000000000001
sS'type'
p95
S'wind'
p96
sS'critmult'
p97
F2.5
sssg33
S'Flute'
p98
sg48
S'Instrument'
p99
sbasbsS'aptitude'
p100
(dp101
S'rhy'
p102
I5
sS'percussion'
p103
I2
sS'string'
p104
I8
sS'mus'
p105
I5
sS'foc'
p106
I5
sg96
I5
sS'HP'
p107
I5
sS'atk'
p108
I5
sS'def'
p109
I5
sS'cla'
p110
I5
ssS'monsters'
p111
(lp112
g37
(cdata.entityclasses
TamedMonster
p113
g39
NtRp114
(dp115
S'status'
p116
(lp117
sg47
I1
sg66
(dp118
S'curr'
p119
(dp120
S'notes'
p121
I4
sS'bond'
p122
I0
sg107
I1500
sS'notegain'
p123
I2
ssS'gains'
p124
(dp125
g102
I6
sg105
I5
sg107
I5
sg110
I5
sg108
I4
sg106
I5
sg109
I3
ssg68
(dp126
g70
I0
sg71
I0
sg72
I0
sg73
I0
sg74
I60
sg75
I0
sg76
I0
sg77
I30
ssS'tp'
p127
(dp128
S'nexttp'
p129
I100
sS'totaltp'
p130
I0
sg127
I0
sS'tpprog'
p131
I0
ssg78
(dp132
g80
I0
sg81
I0
sg82
I0
sg83
I0
sg84
I0
sg85
I0
sg86
I0
sg87
I0
ssg88
(dp133
g102
I1200
sg104
I1
sg105
I1100
sg107
I1500
sg108
I1550
sg110
I1250
sg103
I1
sg109
I1350
sg106
I1200
sg96
I1
sssg33
S'Ichiro'
p134
sS'equipment'
p135
(dp136
S'instrument'
p137
g37
(g62
g39
NtRp138
(dp139
g52
(dp140
g54
I300
sg55
I600
ssg47
I1
sg66
(dp141
g68
(dp142
g70
I0
sg71
I0
sg72
I0
sg73
I0
sg74
I60
sg75
I0
sg76
I0
sg77
I30
ssg78
(dp143
g80
I0
sg81
I0
sg82
I0
sg83
I0
sg84
I0
sg85
I0
sg86
I0
sg87
I0
ssg88
(dp144
g90
I8
sg91
F0.90000000000000002
sg92
I2
sg93
Nsg94
F0.20000000000000001
sg95
g96
sg97
F2.5
sssg33
g98
sg48
g99
sbsS'accessory2'
p145
NsS'accessory1'
p146
NssS'canMove'
p147
I01
sS'isDead'
p148
I00
sS'master'
p149
g30
sS'species'
p150
S'Kobold'
p151
sS'spells'
p152
(lp153
(idata.compositeclasses
Spell
p154
(dp155
g47
I1
sS'cost'
p156
I4
sS'inst'
p157
g96
sg33
S'Black Aria'
p158
sg95
S'off'
p159
sg56
(lp160
(lp161
S'dmg_HP'
p162
a(lp163
I5
ag105
aF0.14000000000000001
aaa(lp164
S'apply_debuff'
p165
a(lp166
S'Poison'
p167
aI25
aI2
aaasg50
S'aoe'
p168
sbasbasbasS'elixir received'
p169
I00
sS'brother quest complete'
p170
I00
sS'battle counter'
p171
I20
sS'talked to sick brother'
p172
I00
sS'treasure1'
p173
I01
sS'player inventory'
p174
(lp175
g37
(g44
g39
NtRp176
(dp177
g47
I1
sg48
g49
sg50
g51
sg52
(dp178
g54
I25
sg55
I50
ssg56
(lp179
(lp180
g59
a(lp181
I100
aaasg33
g61
sbag37
(g44
g39
NtRp182
(dp183
g47
I1
sg48
g49
sg50
g51
sg52
(dp184
g54
I25
sg55
I50
ssg56
(lp185
(lp186
g59
a(lp187
I100
aaasg33
g61
sbag37
(g44
g39
NtRp188
(dp189
g47
I1
sg48
g49
sg50
g51
sg52
(dp190
g54
I25
sg55
I50
ssg56
(lp191
(lp192
g59
a(lp193
I100
aaasg33
g61
sbag37
(g44
g39
NtRp194
(dp195
g47
I1
sg48
g49
sg50
g51
sg52
(dp196
g54
I25
sg55
I50
ssg56
(lp197
(lp198
g59
a(lp199
I100
aaasg33
g61
sbag37
(g44
g39
NtRp200
(dp201
g47
I1
sg48
g49
sg50
g51
sg52
(dp202
g54
I25
sg55
I50
ssg56
(lp203
(lp204
g59
a(lp205
I100
aaasg33
g61
sbag37
(g44
g39
NtRp206
(dp207
g47
I1
sg48
g49
sg50
g51
sg52
(dp208
g54
I25
sg55
I50
ssg56
(lp209
(lp210
g59
a(lp211
I100
aaasg33
g61
sbag37
(g44
g39
NtRp212
(dp213
g47
I1
sg48
g49
sg50
g51
sg52
(dp214
g54
I25
sg55
I50
ssg56
(lp215
(lp216
g59
a(lp217
I100
aaasg33
g61
sbasS'talked to king'
p218
I00
s.