(dp1
S'old man gift'
p2
S''
sS'gold'
p3
I923
sS'brother item'
p4
S'ELIXIR'
p5
sS'old man item'
p6
(dp7
g5
(dp8
S'value'
p9
I1000
sS'quantity'
p10
I1
sssS'battle type'
p11
NsS'treasure2'
p12
I01
sS'treasure3'
p13
I01
sS'treasure4'
p14
I01
sS'treasure5'
p15
I01
sS'start of game'
p16
I00
sS'delivered crown'
p17
I00
sS'crown quest'
p18
I00
sS'has brother elixir'
p19
I00
sS'last location'
p20
(lp21
F14
aF46
asS'last state'
p22
S'FaesLanding'
p23
sS'king item'
p24
S'GOLD'
p25
sS'last direction'
p26
S'down'
p27
sS'conductors'
p28
(lp29
(idata.entityclasses
Conductor
p30
(dp31
S'conductorskill'
p32
NsS'name'
p33
S'Hanami Otozono'
p34
sS'monsterLimit'
p35
I3
sS'inventory'
p36
ccopy_reg
_reconstructor
p37
(cdata.compositeclasses
Inventory
p38
c__builtin__
object
p39
NtRp40
(dp41
S'items'
p42
(lp43
g37
(cdata.compositeclasses
Instrument
p44
g39
NtRp45
(dp46
S'prices'
p47
(dp48
S'sell'
p49
I300
sS'buy'
p50
I600
ssS'index'
p51
I1
sS'stats'
p52
(dp53
S'bonus'
p54
(dp55
S'bonuscla'
p56
I0
sS'bonusdef'
p57
I0
sS'bonusnotegain'
p58
I0
sS'bonusfoc'
p59
I0
sS'bonusatk'
p60
I60
sS'bonusrhy'
p61
I0
sS'bonusHP'
p62
I0
sS'bonusmus'
p63
I30
ssS'penalty'
p64
(dp65
S'penaltymus'
p66
I0
sS'penaltyatk'
p67
I0
sS'penaltynotegain'
p68
I0
sS'penaltycla'
p69
I0
sS'penaltyrhy'
p70
I0
sS'penaltydef'
p71
I0
sS'penaltyfoc'
p72
I0
sS'penaltyHP'
p73
I0
ssS'base'
p74
(dp75
S'hits'
p76
I8
sS'proration'
p77
F0.90000000000000002
sS'critchance'
p78
I2
sS'effects'
p79
NsS'atkmult'
p80
F0.20000000000000001
sS'type'
p81
S'wind'
p82
sS'critmult'
p83
F2.5
sssg33
S'Flute'
p84
sS'itemType'
p85
S'Instrument'
p86
sbasbsS'aptitude'
p87
(dp88
S'rhy'
p89
I5
sS'string'
p90
I8
sS'mus'
p91
I5
sS'HP'
p92
I5
sS'atk'
p93
I5
sS'cla'
p94
I5
sS'percussion'
p95
I2
sS'def'
p96
I5
sS'foc'
p97
I5
sg82
I5
ssS'monsters'
p98
(lp99
g37
(cdata.entityclasses
TamedMonster
p100
g39
NtRp101
(dp102
S'status'
p103
(lp104
sg51
I1
sg52
(dp105
S'curr'
p106
(dp107
S'notes'
p108
I4
sS'notegain'
p109
I2
sg92
I1525
sS'bond'
p110
I0
ssS'gains'
p111
(dp112
g89
I6
sg91
I5
sg92
I5
sg94
I5
sg93
I4
sg97
I5
sg96
I3
ssg54
(dp113
g56
I0
sg57
I0
sg58
I0
sg59
I0
sg60
I60
sg61
I0
sg62
I0
sg63
I30
ssS'tp'
p114
(dp115
S'nexttp'
p116
I3200
sS'totaltp'
p117
I5
sg114
I0
sS'tpprog'
p118
I3175
ssg64
(dp119
g66
I0
sg67
I0
sg68
I0
sg69
I0
sg70
I0
sg71
I0
sg72
I0
sg73
I0
ssg74
(dp120
g89
I1200
sg90
I1
sg91
I1100
sg92
I1525
sg94
I1250
sg93
I1610
sg95
I1
sg82
I1
sg97
I1200
sg96
I1365
sssg33
S'Ichiro'
p121
sS'equipment'
p122
(dp123
S'instrument'
p124
g37
(g44
g39
NtRp125
(dp126
g47
(dp127
g49
I300
sg50
I600
ssg51
I1
sg52
(dp128
g54
(dp129
g56
I0
sg57
I0
sg58
I0
sg59
I0
sg60
I60
sg61
I0
sg62
I0
sg63
I30
ssg64
(dp130
g66
I0
sg67
I0
sg68
I0
sg69
I0
sg70
I0
sg71
I0
sg72
I0
sg73
I0
ssg74
(dp131
g76
I8
sg77
F0.90000000000000002
sg78
I2
sg79
Nsg80
F0.20000000000000001
sg81
g82
sg83
F2.5
sssg33
g84
sg85
g86
sbsS'accessory2'
p132
NsS'accessory1'
p133
NssS'canMove'
p134
I01
sS'isDead'
p135
I00
sS'master'
p136
g30
sS'species'
p137
S'Kobold'
p138
sS'spells'
p139
(lp140
(idata.compositeclasses
Spell
p141
(dp142
g51
I1
sg33
S'Black Aria'
p143
sS'effectsList'
p144
(lp145
(lp146
S'dmg_HP'
p147
a(lp148
I5
ag91
aF0.14000000000000001
aaa(lp149
S'apply_debuff'
p150
a(lp151
S'Poison'
p152
aI25
aI2
aaasS'cost'
p153
I4
sS'inst'
p154
g82
sS'type'
p155
S'off'
p156
sS'target'
p157
S'aoe'
p158
sbasbasbasS'elixir received'
p159
I00
sS'brother quest complete'
p160
I00
sS'battle counter'
p161
I42
sS'talked to sick brother'
p162
I00
sS'treasure1'
p163
I01
sS'player inventory'
p164
(lp165
g37
(cdata.compositeclasses
Consumable
p166
g39
NtRp167
(dp168
g51
I1
sg157
S'one'
p169
sg144
(lp170
(lp171
S'rec_HP'
p172
a(lp173
I100
aaasg33
S'Potion'
p174
sg47
(dp175
g49
I25
sg50
I50
ssg85
S'Consumable'
p176
sbag37
(g166
g39
NtRp177
(dp178
g51
I1
sg157
g169
sg144
(lp179
(lp180
g172
a(lp181
I100
aaasg33
g174
sg47
(dp182
g49
I25
sg50
I50
ssg85
g176
sbag37
(g166
g39
NtRp183
(dp184
g51
I1
sg157
g169
sg144
(lp185
(lp186
g172
a(lp187
I100
aaasg33
g174
sg47
(dp188
g49
I25
sg50
I50
ssg85
g176
sbag37
(g166
g39
NtRp189
(dp190
g51
I1
sg157
g169
sg144
(lp191
(lp192
g172
a(lp193
I100
aaasg33
g174
sg47
(dp194
g49
I25
sg50
I50
ssg85
g176
sbag37
(g166
g39
NtRp195
(dp196
g51
I1
sg157
g169
sg144
(lp197
(lp198
g172
a(lp199
I100
aaasg33
g174
sg47
(dp200
g49
I25
sg50
I50
ssg85
g176
sbag37
(g166
g39
NtRp201
(dp202
g51
I1
sg157
g169
sg144
(lp203
(lp204
g172
a(lp205
I100
aaasg33
g174
sg47
(dp206
g49
I25
sg50
I50
ssg85
g176
sbag37
(g166
g39
NtRp207
(dp208
g51
I1
sg157
g169
sg144
(lp209
(lp210
g172
a(lp211
I100
aaasg33
g174
sg47
(dp212
g49
I25
sg50
I50
ssg85
g176
sbasS'talked to king'
p213
I00
s.